; Function Attrs: nounwind uwtable
define internal fastcc void @rec_comp_prep(ptr noundef %0) unnamed_addr #0 {
  %2 = getelementptr inbounds nuw i8, ptr %0, i64 10
  %3 = load i16, ptr %2, align 2, !tbaa !99
  %4 = icmp eq i16 %3, 1
  br i1 %4, label %5, label %19

5:                                                ; preds = %1
  %6 = getelementptr inbounds nuw i8, ptr %0, i64 48
  %7 = load ptr, ptr %6, align 8, !tbaa !98
  %8 = getelementptr inbounds nuw i8, ptr %7, i64 4
  %9 = load i16, ptr %8, align 4, !tbaa !115
  %10 = zext i16 %9 to i32
  %11 = getelementptr inbounds nuw i8, ptr %0, i64 12
  %12 = load i32, ptr %11, align 4, !tbaa !91
  %13 = icmp eq i32 %12, %10
  br i1 %13, label %14, label %19

14:                                               ; preds = %5
  %15 = getelementptr inbounds nuw i8, ptr %0, i64 184
  %16 = getelementptr inbounds nuw i8, ptr %0, i64 188
  store i16 3072, ptr %16, align 4, !tbaa !4
  store i16 0, ptr %15, align 8, !tbaa !4
  %17 = getelementptr inbounds nuw i8, ptr %0, i64 186
  store i16 0, ptr %17, align 2, !tbaa !4
  %18 = tail call i32 @lj_ir_emit(ptr noundef nonnull %0) #8
  br label %19

19:                                               ; preds = %14, %5, %1
  tail call void @lj_snap_add(ptr noundef nonnull %0) #8
  ret void
}